; ModuleID = '16/2.c'
source_filename = "16/2.c"
target datalayout = "e-m:e-p270:32:32-p271:32:32-p272:64:64-i64:64-f80:128-n8:16:32:64-S128"
target triple = "x86_64-pc-linux-gnu"

@.str = private unnamed_addr constant [3 x i8] c"%c\00", align 1

; Function Attrs: noinline nounwind uwtable
define dso_local void @main() #0 {
  %1 = alloca i8*, align 8
  %2 = alloca i8*, align 8
  %3 = alloca i32, align 4
  store i32 0, i32* %3, align 4
  %4 = call noalias i8* @malloc(i64 1000) #3
  store i8* %4, i8** %1, align 8
  %5 = load i8*, i8** %1, align 8
  %6 = call i32 (i8*, ...) bitcast (i32 (...)* @gets to i32 (i8*, ...)*)(i8* %5)
  %7 = load i8*, i8** %1, align 8
  store i8* %7, i8** %2, align 8
  br label %8

8:                                                ; preds = %14, %0
  %9 = load i8*, i8** %2, align 8
  %10 = load i8, i8* %9, align 1
  %11 = sext i8 %10 to i32
  %12 = icmp ne i32 %11, 0
  br i1 %12, label %13, label %17

13:                                               ; preds = %8
  br label %14

14:                                               ; preds = %13
  %15 = load i8*, i8** %2, align 8
  %16 = getelementptr inbounds i8, i8* %15, i32 1
  store i8* %16, i8** %2, align 8
  br label %8

17:                                               ; preds = %8
  %18 = load i8*, i8** %2, align 8
  %19 = getelementptr inbounds i8, i8* %18, i32 -1
  store i8* %19, i8** %2, align 8
  br label %20

20:                                               ; preds = %29, %17
  %21 = load i8*, i8** %2, align 8
  %22 = load i8*, i8** %1, align 8
  %23 = icmp uge i8* %21, %22
  br i1 %23, label %24, label %32

24:                                               ; preds = %20
  %25 = load i8*, i8** %2, align 8
  %26 = load i8, i8* %25, align 1
  %27 = sext i8 %26 to i32
  %28 = call i32 (i8*, ...) @printf(i8* getelementptr inbounds ([3 x i8], [3 x i8]* @.str, i64 0, i64 0), i32 %27)
  br label %29

29:                                               ; preds = %24
  %30 = load i8*, i8** %2, align 8
  %31 = getelementptr inbounds i8, i8* %30, i32 -1
  store i8* %31, i8** %2, align 8
  br label %20

32:                                               ; preds = %20
  ret void
}

; Function Attrs: nounwind
declare dso_local noalias i8* @malloc(i64) #1

declare dso_local i32 @gets(...) #2

declare dso_local i32 @printf(i8*, ...) #2


!llvm.module.flags = !{!0}
!llvm.ident = !{!1}

!0 = !{i32 1, !"wchar_size", i32 4}
!1 = !{!"clang version 10.0.0-4ubuntu1 "}
