; ModuleID = 'source-C-CXX/15/2.c'
source_filename = "source-C-CXX/15/2.c"
target datalayout = "e-m:e-p270:32:32-p271:32:32-p272:64:64-i64:64-f80:128-n8:16:32:64-S128"
target triple = "x86_64-pc-linux-gnu"

; Function Attrs: nounwind sspstrong uwtable
define dso_local void @main() local_unnamed_addr #0 {
  %1 = tail call noalias align 16 dereferenceable_or_null(1000) i8* @malloc(i64 1000) #4
  %2 = tail call i32 (i8*, ...) bitcast (i32 (...)* @gets to i32 (i8*, ...)*)(i8* %1) #4
  br label %3

3:                                                ; preds = %3, %0
  %4 = phi i8* [ %1, %0 ], [ %7, %3 ]
  %5 = load i8, i8* %4, align 1, !tbaa !5
  %6 = icmp eq i8 %5, 0
  %7 = getelementptr inbounds i8, i8* %4, i64 1
  br i1 %6, label %8, label %3, !llvm.loop !8

8:                                                ; preds = %3
  %9 = getelementptr inbounds i8, i8* %4, i64 -1
  %10 = icmp ult i8* %9, %1
  br i1 %10, label %18, label %11

11:                                               ; preds = %8, %11
  %12 = phi i8* [ %16, %11 ], [ %9, %8 ]
  %13 = load i8, i8* %12, align 1, !tbaa !5
  %14 = sext i8 %13 to i32
  %15 = tail call i32 @putchar(i32 %14)
  %16 = getelementptr inbounds i8, i8* %12, i64 -1
  %17 = icmp ult i8* %16, %1
  br i1 %17, label %18, label %11, !llvm.loop !10

18:                                               ; preds = %11, %8
  ret void
}

; Function Attrs: inaccessiblememonly mustprogress nofree nounwind willreturn
declare noalias noundef align 16 i8* @malloc(i64 noundef) local_unnamed_addr #1

declare i32 @gets(...) local_unnamed_addr #2

; Function Attrs: nofree nounwind
declare noundef i32 @putchar(i32 noundef) local_unnamed_addr #3


!llvm.module.flags = !{!0, !1, !2, !3}
!llvm.ident = !{!4}

!0 = !{i32 1, !"wchar_size", i32 4}
!1 = !{i32 7, !"PIC Level", i32 2}
!2 = !{i32 7, !"PIE Level", i32 2}
!3 = !{i32 7, !"uwtable", i32 1}
!4 = !{!"clang version 13.0.0"}
!5 = !{!6, !6, i64 0}
!6 = !{!"omnipotent char", !7, i64 0}
!7 = !{!"Simple C/C++ TBAA"}
!8 = distinct !{!8, !9}
!9 = !{!"llvm.loop.mustprogress"}
!10 = distinct !{!10, !9}
